target datalayout = "e-m:e-p270:32:32-p271:32:32-p272:64:64-i64:64-i128:128-f80:128-n8:16:32:64-S128"
target triple = "x86_64-pc-linux-gnu"

%struct.suspend_msg = type { i16, i32, ptr }

@.str.66 = private unnamed_addr constant [23 x i8] c"job has been suspended\00", align 1
@.str.67 = private unnamed_addr constant [21 x i8] c"job has been resumed\00", align 1

; Function Attrs: nounwind uwtable
define internal void @_job_suspend_handler(ptr noundef %0) #0 {
  %2 = alloca ptr, align 8
  store ptr %0, ptr %2, align 8
  %3 = load ptr, ptr %2, align 8
  %4 = getelementptr inbounds nuw %struct.suspend_msg, ptr %3, i32 0, i32 0
  %5 = load i16, ptr %4, align 8
  %6 = zext i16 %5 to i32
  %7 = icmp eq i32 %6, 0
  br i1 %7, label %8, label %17

8:                                                ; preds = %1
  br label %9

9:                                                ; preds = %8
  br label %10

10:                                               ; preds = %9
  %11 = call i32 @get_log_level()
  %12 = icmp sge i32 %11, 4
  br i1 %12, label %13, label %14

13:                                               ; preds = %10
  call void (i32, ptr, ...) @log_var(i32 noundef 4, ptr noundef @.str.66)
  br label %14

14:                                               ; preds = %13, %10
  br label %15

15:                                               ; preds = %14
  br label %16

16:                                               ; preds = %15
  br label %33

17:                                               ; preds = %1
  %18 = load ptr, ptr %2, align 8
  %19 = getelementptr inbounds nuw %struct.suspend_msg, ptr %18, i32 0, i32 0
  %20 = load i16, ptr %19, align 8
  %21 = zext i16 %20 to i32
  %22 = icmp eq i32 %21, 1
  br i1 %22, label %23, label %32

23:                                               ; preds = %17
  br label %24

24:                                               ; preds = %23
  br label %25

25:                                               ; preds = %24
  %26 = call i32 @get_log_level()
  %27 = icmp sge i32 %26, 4
  br i1 %27, label %28, label %29

28:                                               ; preds = %25
  call void (i32, ptr, ...) @log_var(i32 noundef 4, ptr noundef @.str.67)
  br label %29

29:                                               ; preds = %28, %25
  br label %30

30:                                               ; preds = %29
  br label %31

31:                                               ; preds = %30
  br label %32

32:                                               ; preds = %31, %17
  br label %33

33:                                               ; preds = %32, %16
  ret void
}