; Function Attrs: nounwind uwtable
define internal void @_job_suspend_handler(ptr noundef readonly captures(none) %0) #0 {
  %2 = load i16, ptr %0, align 8
  switch i16 %2, label %9 [
    i16 0, label %3
    i16 1, label %6
  ]

3:                                                ; preds = %1
  %4 = tail call i32 @get_log_level() #13
  %5 = icmp sgt i32 %4, 3
  br i1 %5, label %.sink.split, label %9

6:                                                ; preds = %1
  %7 = tail call i32 @get_log_level() #13
  %8 = icmp sgt i32 %7, 3
  br i1 %8, label %.sink.split, label %9

.sink.split:                                      ; preds = %6, %3
  %.str.67.sink = phi ptr [ @.str.66, %3 ], [ @.str.67, %6 ]
  tail call void (i32, ptr, ...) @log_var(i32 noundef 4, ptr noundef nonnull %.str.67.sink) #13
  br label %9

9:                                                ; preds = %.sink.split, %1, %6, %3
  ret void
}